target datalayout = "e-m:e-p270:32:32-p271:32:32-p272:64:64-i64:64-i128:128-f80:128-n8:16:32:64-S128"
target triple = "x86_64-unknown-linux-gnu"

%"class.std::unique_ptr.234" = type { %"struct.std::__uniq_ptr_data.235" }
%"struct.std::__uniq_ptr_data.235" = type { %"class.std::__uniq_ptr_impl.236" }
%"class.std::__uniq_ptr_impl.236" = type { %"class.std::tuple.237" }
%"class.std::tuple.237" = type { %"struct.std::_Tuple_impl.238" }
%"struct.std::_Tuple_impl.238" = type { %"struct.std::_Head_base.241" }
%"struct.std::_Head_base.241" = type { ptr }
%"class.node::BaseObjectPtrImpl.323" = type { %union.anon.324 }
%union.anon.324 = type { ptr }
%class.anon.325 = type { ptr, %"class.node::BaseObjectPtrImpl.323" }
%"class.node::CallbackQueue<void, node::Environment *>::Callback" = type { ptr, i32, %"class.std::unique_ptr.234" }
%"class.node::CallbackQueue<void, node::Environment *>::CallbackImpl.519" = type { %"class.node::CallbackQueue<void, node::Environment *>::Callback", %class.anon.325 }

; Function Attrs: mustprogress nounwind uwtable
define internal void @"_ZZN4node6crypto7TLSWrap6EncOutEvENK3$_1clEPNS_11EnvironmentE"(ptr noundef nonnull align 8 dereferenceable(16) %this, ptr noundef %env) #4 align 2 {
entry:
  %this.addr = alloca ptr, align 8
  %env.addr = alloca ptr, align 8
  store ptr %this, ptr %this.addr, align 8
  store ptr %env, ptr %env.addr, align 8
  %this1 = load ptr, ptr %this.addr, align 8
  %0 = getelementptr inbounds %class.anon.325, ptr %this1, i32 0, i32 0
  %1 = load ptr, ptr %0, align 8
  %vtable = load ptr, ptr %1, align 8
  %vfn = getelementptr inbounds ptr, ptr %vtable, i64 32
  %2 = load ptr, ptr %vfn, align 8
  call void %2(ptr noundef nonnull align 8 dereferenceable(457) %1, ptr noundef null, i32 noundef 0)
  ret void
}

; Function Attrs: mustprogress nounwind uwtable
define internal void @"_ZN4node13CallbackQueueIvJPNS_11EnvironmentEEE12CallbackImplIZNS_6crypto7TLSWrap6EncOutEvE3$_1E4CallES2_"(ptr noundef nonnull align 8 dereferenceable(40) %this, ptr noundef %args) unnamed_addr #4 align 2 {
entry:
  %this.addr = alloca ptr, align 8
  %args.addr = alloca ptr, align 8
  store ptr %this, ptr %this.addr, align 8
  store ptr %args, ptr %args.addr, align 8
  %this1 = load ptr, ptr %this.addr, align 8
  %callback_ = getelementptr inbounds %"class.node::CallbackQueue<void, node::Environment *>::CallbackImpl.519", ptr %this1, i32 0, i32 1
  %0 = load ptr, ptr %args.addr, align 8
  call void @"_ZZN4node6crypto7TLSWrap6EncOutEvENK3$_1clEPNS_11EnvironmentE"(ptr noundef nonnull align 8 dereferenceable(16) %callback_, ptr noundef %0)
  ret void
}