; Function Attrs: mustprogress nounwind uwtable
define internal void @"_ZN4node13CallbackQueueIvJPNS_11EnvironmentEEE12CallbackImplIZNS_6crypto7TLSWrap6EncOutEvE3$_1E4CallES2_"(ptr nocapture noundef nonnull readonly align 8 dereferenceable(40) %this, ptr nocapture readnone %args) unnamed_addr #3 align 2 {
entry:
  %callback_ = getelementptr inbounds i8, ptr %this, i64 24
  %callback_.val = load ptr, ptr %callback_, align 8
  %vtable.i = load ptr, ptr %callback_.val, align 8
  %vfn.i = getelementptr inbounds i8, ptr %vtable.i, i64 256
  %0 = load ptr, ptr %vfn.i, align 8
  tail call void %0(ptr noundef nonnull align 8 dereferenceable(457) %callback_.val, ptr noundef null, i32 noundef 0) #23
  ret void
}